target datalayout = "e-m:e-p270:32:32-p271:32:32-p272:64:64-i64:64-i128:128-f80:128-n8:16:32:64-S128"
target triple = "x86_64-pc-linux-gnu"

%class.QString = type { %struct.QArrayDataPointer }
%struct.QArrayDataPointer = type { ptr, ptr, i64 }
%class.ImportTextDialog = type <{ %class.QDialog, ptr, %class.QMap, ptr, ptr, %struct.text_import_info_t, %class.QString, i8, i8, i8, i8, i8, i8, i8, i8, i8, i8, i8, i8, i8, i8, i8, i8, i8, [7 x i8] }>
%class.QDialog = type { %class.QWidget }
%class.QWidget = type { %class.QObject, %class.QPaintDevice.base, ptr }
%class.QObject = type { ptr, %class.QScopedPointer }
%class.QScopedPointer = type { ptr }
%class.QPaintDevice.base = type <{ ptr, i16 }>
%class.QMap = type { %"class.QtPrivate::QExplicitlySharedDataPointerV2" }
%"class.QtPrivate::QExplicitlySharedDataPointerV2" = type { ptr }
%struct.text_import_info_t = type { ptr, ptr, i32, %struct.anon, %struct.anon.0, ptr, i32, ptr, i32, i32, i8, %union.anon, %union.anon.1, i32, i32, i32, i32, i32, ptr, i32, i32, i32 }
%struct.anon = type { ptr, i32, i8, i8, i8 }
%struct.anon.0 = type { ptr, ptr, i32, ptr, ptr }
%union.anon = type { i32, [12 x i8] }
%union.anon.1 = type { i32, [12 x i8] }
%class.Ui_ImportTextDialog = type { ptr, ptr, ptr, ptr, ptr, ptr, ptr, ptr, ptr, ptr, ptr, ptr, ptr, ptr, ptr, ptr, ptr, ptr, ptr, ptr, ptr, ptr, ptr, ptr, ptr, ptr, ptr, ptr, ptr, ptr, ptr, ptr, ptr, ptr, ptr, ptr, ptr, ptr, ptr, ptr, ptr, ptr, ptr, ptr, ptr, ptr, ptr, ptr, ptr, ptr, ptr, ptr, ptr, ptr, ptr, ptr, ptr, ptr, ptr, ptr, ptr, ptr, ptr, ptr, ptr, ptr, ptr, ptr, ptr, ptr, ptr, ptr, ptr, ptr, ptr, ptr, ptr, ptr, ptr, ptr, ptr, ptr, ptr, ptr, ptr, ptr, ptr, ptr, ptr, ptr, ptr, ptr, ptr, ptr, ptr }

; Function Attrs: mustprogress null_pointer_is_valid sspstrong uwtable
define void @_ZN16ImportTextDialog31on_protocolLineEdit_textChangedERK7QString(ptr noundef align 8 dereferenceable_or_null(305) %0, ptr noundef align 8 dereferenceable(24) %1) #4 align 2 {
  %3 = alloca ptr, align 8
  %4 = alloca ptr, align 8
  store ptr %0, ptr %3, align 8
  store ptr %1, ptr %4, align 8
  %5 = load ptr, ptr %3, align 8
  %6 = getelementptr inbounds nuw %class.ImportTextDialog, ptr %5, i32 0, i32 1
  %7 = load ptr, ptr %6, align 8
  %8 = getelementptr inbounds nuw %class.Ui_ImportTextDialog, ptr %7, i32 0, i32 78
  %9 = load ptr, ptr %8, align 8
  %10 = getelementptr inbounds nuw %class.ImportTextDialog, ptr %5, i32 0, i32 15
  %11 = load ptr, ptr %4, align 8
  %12 = getelementptr inbounds nuw %class.ImportTextDialog, ptr %5, i32 0, i32 5
  %13 = getelementptr inbounds nuw %struct.text_import_info_t, ptr %12, i32 0, i32 13
  call void @_ZN16ImportTextDialog15check_line_editEP14SyntaxLineEditRbRK7QStringijbPj(ptr noundef align 8 dereferenceable_or_null(305) %5, ptr noundef %9, ptr noundef align 1 dereferenceable(1) %10, ptr noundef align 8 dereferenceable(24) %11, i32 noundef 10, i32 noundef 255, i1 noundef zeroext true, ptr noundef %13)
  ret void
}